; Function Attrs: mustprogress uwtable
define dso_local noundef zeroext i1 @_ZNK17cmGlobalGenerator10IsExcludedERK15cmStateSnapshotS2_(ptr nocapture nonnull readnone align 8 %0, ptr noundef nonnull align 8 dereferenceable(24) %1, ptr nocapture noundef nonnull readonly align 8 dereferenceable(24) %2) local_unnamed_addr #3 align 2 personality ptr @__gxx_personality_v0 {
  %4 = alloca %class.cmStateSnapshot, align 8
  %5 = alloca %class.cmStateDirectory, align 8
  %6 = alloca %"class.std::__cxx11::basic_string", align 8
  %7 = alloca %"class.std::allocator", align 1
  %8 = alloca %class.cmStateSnapshot, align 8
  call void @llvm.memcpy.p0.p0.i64(ptr noundef nonnull align 8 dereferenceable(24) %4, ptr noundef nonnull align 8 dereferenceable(24) %2, i64 24, i1 false)
  %9 = call noundef zeroext i1 @_ZNK15cmStateSnapshot7IsValidEv(ptr noundef nonnull align 8 dereferenceable(24) %4)
  br i1 %9, label %.lr.ph, label %._crit_edge

.lr.ph:                                           ; preds = %3, %21
  %10 = call noundef zeroext i1 @_ZeqRK15cmStateSnapshotS1_(ptr noundef nonnull align 8 dereferenceable(24) %4, ptr noundef nonnull align 8 dereferenceable(24) %1)
  br i1 %10, label %._crit_edge, label %11

11:                                               ; preds = %.lr.ph
  call void @_ZNK15cmStateSnapshot12GetDirectoryEv(ptr dead_on_unwind nonnull writable sret(%class.cmStateDirectory) align 8 %5, ptr noundef nonnull align 8 dereferenceable(24) %4)
  call void @_ZNSaIcEC1Ev(ptr noundef nonnull align 1 dereferenceable(1) %7) #23
  %12 = invoke noundef ptr @_ZNSt7__cxx1112basic_stringIcSt11char_traitsIcESaIcEE13_M_local_dataEv(ptr noundef nonnull align 8 dereferenceable(32) %6)
          to label %.noexc unwind label %17

.noexc:                                           ; preds = %11
  invoke void @_ZNSt7__cxx1112basic_stringIcSt11char_traitsIcESaIcEE12_Alloc_hiderC1EPcRKS3_(ptr noundef nonnull align 8 dereferenceable(8) %6, ptr noundef %12, ptr noundef nonnull align 1 dereferenceable(1) %7)
          to label %.noexc7 unwind label %17

.noexc7:                                          ; preds = %.noexc
  invoke void @_ZNSt7__cxx1112basic_stringIcSt11char_traitsIcESaIcEE12_M_constructIPKcEEvT_S8_St20forward_iterator_tag(ptr noundef nonnull align 8 dereferenceable(32) %6, ptr noundef nonnull @.str.193, ptr noundef nonnull getelementptr inbounds ([17 x i8], ptr @.str.193, i64 0, i64 16))
          to label %_ZNSt7__cxx1112basic_stringIcSt11char_traitsIcESaIcEEC2IS3_EEPKcRKS3_.exit unwind label %13

13:                                               ; preds = %.noexc7
  %14 = landingpad { ptr, i32 }
          cleanup
  call void @_ZNSaIcED2Ev(ptr noundef nonnull align 1 dereferenceable(1) %6) #23
  br label %.body

_ZNSt7__cxx1112basic_stringIcSt11char_traitsIcESaIcEEC2IS3_EEPKcRKS3_.exit: ; preds = %.noexc7
  %15 = invoke noundef zeroext i1 @_ZNK16cmStateDirectory17GetPropertyAsBoolERKNSt7__cxx1112basic_stringIcSt11char_traitsIcESaIcEEE(ptr noundef nonnull align 8 dereferenceable(40) %5, ptr noundef nonnull align 8 dereferenceable(32) %6)
          to label %16 unwind label %19

16:                                               ; preds = %_ZNSt7__cxx1112basic_stringIcSt11char_traitsIcESaIcEEC2IS3_EEPKcRKS3_.exit
  call void @_ZNSt7__cxx1112basic_stringIcSt11char_traitsIcESaIcEED1Ev(ptr noundef nonnull align 8 dereferenceable(32) %6) #23
  call void @_ZNSaIcED1Ev(ptr noundef nonnull align 1 dereferenceable(1) %7) #23
  br i1 %15, label %._crit_edge, label %21

17:                                               ; preds = %.noexc, %11
  %18 = landingpad { ptr, i32 }
          cleanup
  br label %.body

19:                                               ; preds = %_ZNSt7__cxx1112basic_stringIcSt11char_traitsIcESaIcEEC2IS3_EEPKcRKS3_.exit
  %20 = landingpad { ptr, i32 }
          cleanup
  call void @_ZNSt7__cxx1112basic_stringIcSt11char_traitsIcESaIcEED1Ev(ptr noundef nonnull align 8 dereferenceable(32) %6) #23
  br label %.body

.body:                                            ; preds = %17, %13, %19
  %.pn = phi { ptr, i32 } [ %20, %19 ], [ %18, %17 ], [ %14, %13 ]
  call void @_ZNSaIcED1Ev(ptr noundef nonnull align 1 dereferenceable(1) %7) #23
  resume { ptr, i32 } %.pn

21:                                               ; preds = %16
  call void @_ZNK15cmStateSnapshot29GetBuildsystemDirectoryParentEv(ptr dead_on_unwind nonnull writable sret(%class.cmStateSnapshot) align 8 %8, ptr noundef nonnull align 8 dereferenceable(24) %4)
  call void @llvm.memcpy.p0.p0.i64(ptr noundef nonnull align 8 dereferenceable(24) %4, ptr noundef nonnull align 8 dereferenceable(24) %8, i64 24, i1 false)
  %22 = call noundef zeroext i1 @_ZNK15cmStateSnapshot7IsValidEv(ptr noundef nonnull align 8 dereferenceable(24) %4)
  br i1 %22, label %.lr.ph, label %._crit_edge, !llvm.loop !723

._crit_edge:                                      ; preds = %.lr.ph, %16, %21, %3
  %.05 = phi i1 [ false, %3 ], [ false, %21 ], [ true, %16 ], [ false, %.lr.ph ]
  ret i1 %.05
}